(dp1
S'output'
p2
S"<type 'exceptions.TypeError'> <Values at 0x7f9f03e64b90: {'verbose': False, 'ip': '127.0.0.1', 'debuglevel': 30, 'with_scheduler': False, 'ips': ['127.0.1.1'], 'shutdown_timeout': 5, 'taskbar': False, 'with_coverage': False, 'scheduler_groups': None, 'port': 8000, 'maxthreads': None, 'softcron': False, 'server_name': 'echo', 'bpython': False, 'nogui': True, 'pid_filename': 'httpserver.pid', 'print_errors': False, 'extcron': False, 'runcron': False, 'run_system_tests': False, 'test': None, 'folder': '/home/matt/Dev/web2py', 'config': '', 'minthreads': None, 'shell': None, 'run': '', 'log_filename': 'httpserver.log', 'profiler_dir': None, 'args': [''], 'socket_timeout': 5, 'ssl_ca_certificate': None, 'scheduler': None, 'interfaces': None, 'ssl_private_key': '', 'gae': None, 'password': '123', 'request_queue_size': 5, 'ssl_certificate': '', 'cronjob': False, 'numthreads': None, 'quiet': False, 'import_models': False, 'timeout': 10, 'plain': False, 'nobanner': False}> is not JSON serializable"
p3
sS'layer'
p4
S'/home/matt/Dev/web2py/applications/blog/controllers/invite_tool.py'
p5
sS'code'
p6
S"\ndef index():\n    return locals()\t\n\t\ndef getAccountCollection():\n\tjson = []\n\trows = db().select(db.accounts.ALL, orderby=db.accounts.name)\n\tfor row in rows:\n\t\tjson.append({'name': row.name, 'id': row.id})\n\t\t\n\treturn response.json(json)\n\t\ndef getInviteeCollection():\n\tjson = []\n\trows = db(db.invitees.account_id.contains(request.args)).select(orderby=db.invitees.first_name)\n\tfor row in rows:\n\t\tjson.append({'id': row.id, 'first_name': row.first_name, 'last_name': row.last_name, 'email': row.email})\n\t\t\n\treturn response.json(json)\n\t\ndef postInvitee():\n\n\t\t\n\treturn response.json(request)\n\nresponse._vars=response._caller(postInvitee)\n"
p7
sS'snapshot'
p8
(dp9
sS'traceback'
p10
S'Traceback (most recent call last):\n  File "/home/matt/Dev/web2py/gluon/restricted.py", line 227, in restricted\n    exec ccode in environment\n  File "/home/matt/Dev/web2py/applications/blog/controllers/invite_tool.py", line 26, in <module>\n  File "/home/matt/Dev/web2py/gluon/globals.py", line 412, in <lambda>\n    self._caller = lambda f: f()\n  File "/home/matt/Dev/web2py/applications/blog/controllers/invite_tool.py", line 24, in postInvitee\n    return response.json(request)\n  File "/home/matt/Dev/web2py/gluon/globals.py", line 656, in json\n    return json(data, default=default or custom_json)\n  File "/home/matt/Dev/web2py/gluon/serializers.py", line 137, in json\n    value = json_parser.dumps(value, default=default)\n  File "/usr/lib/python2.7/json/__init__.py", line 250, in dumps\n    sort_keys=sort_keys, **kw).encode(obj)\n  File "/usr/lib/python2.7/json/encoder.py", line 207, in encode\n    chunks = self.iterencode(o, _one_shot=True)\n  File "/usr/lib/python2.7/json/encoder.py", line 270, in iterencode\n    return _iterencode(o, 0)\n  File "/home/matt/Dev/web2py/gluon/serializers.py", line 110, in custom_json\n    raise TypeError(repr(o) + " is not JSON serializable")\nTypeError: <Values at 0x7f9f03e64b90: {\'verbose\': False, \'ip\': \'127.0.0.1\', \'debuglevel\': 30, \'with_scheduler\': False, \'ips\': [\'127.0.1.1\'], \'shutdown_timeout\': 5, \'taskbar\': False, \'with_coverage\': False, \'scheduler_groups\': None, \'port\': 8000, \'maxthreads\': None, \'softcron\': False, \'server_name\': \'echo\', \'bpython\': False, \'nogui\': True, \'pid_filename\': \'httpserver.pid\', \'print_errors\': False, \'extcron\': False, \'runcron\': False, \'run_system_tests\': False, \'test\': None, \'folder\': \'/home/matt/Dev/web2py\', \'config\': \'\', \'minthreads\': None, \'shell\': None, \'run\': \'\', \'log_filename\': \'httpserver.log\', \'profiler_dir\': None, \'args\': [\'\'], \'socket_timeout\': 5, \'ssl_ca_certificate\': None, \'scheduler\': None, \'interfaces\': None, \'ssl_private_key\': \'\', \'gae\': None, \'password\': \'123\', \'request_queue_size\': 5, \'ssl_certificate\': \'\', \'cronjob\': False, \'numthreads\': None, \'quiet\': False, \'import_models\': False, \'timeout\': 10, \'plain\': False, \'nobanner\': False}> is not JSON serializable\n'
p11
s.