(dp1
S'output'
p2
S"<type 'exceptions.AttributeError'> 'str' object has no attribute 'row'"
p3
sS'layer'
p4
S'/home/matt/Dev/web2py/applications/blog/controllers/invite_tool.py'
p5
sS'code'
p6
S"import uuid\ndef index():\n    return locals()\t\n\t\ndef getAccountCollection():\n\tjson = []\n\trows = db().select(db.accounts.ALL, orderby=db.accounts.name)\n\tfor row in rows:\n\t\tjson.append({'name': row.name, 'id': row.id})\n\t\t\n\treturn response.json(json)\n\t\ndef getInviteeCollection():\n\tjson = []\n\trows = db(db.invitees.account_id.contains(request.args)).select(orderby=db.invitees.first_name)\n\tfor row in rows:\n\t\tif row.uuid == None:\n\t\t\trow.uuid = row.account_id . row.id\n\t\tjson.append({'id': row.uuid, 'first_name': row.first_name, 'last_name': row.last_name, 'email': row.email})\n\t\t\n\treturn response.json(json)\n\t\ndef postInvitee():\n    form = SQLFORM(db.invitees)\n    id = str(uuid.uuid1())\n    json = []\n    request.post_vars.uuid = id\n    if form.accepts(request, formname=None):\n        json.append({'id': id})\n        return response.json(json)\n    elif form.errors:\n        return TABLE(*[TR(k, v) for k, v in form.errors.items()])\n        \ndef deleteInvitee():\n    db(db.invitees.uuid == request.post_vars.id).delete()\n    return 'true'\n\nresponse._vars=response._caller(getInviteeCollection)\n"
p7
sS'snapshot'
p8
(dp9
sS'traceback'
p10
S'Traceback (most recent call last):\n  File "/home/matt/Dev/web2py/gluon/restricted.py", line 227, in restricted\n    exec ccode in environment\n  File "/home/matt/Dev/web2py/applications/blog/controllers/invite_tool.py", line 38, in <module>\n  File "/home/matt/Dev/web2py/gluon/globals.py", line 412, in <lambda>\n    self._caller = lambda f: f()\n  File "/home/matt/Dev/web2py/applications/blog/controllers/invite_tool.py", line 18, in getInviteeCollection\n    row.uuid = row.account_id . row.id\nAttributeError: \'str\' object has no attribute \'row\'\n'
p11
s.